target datalayout = "e-m:e-p270:32:32-p271:32:32-p272:64:64-i64:64-i128:128-f80:128-n8:16:32:64-S128"
target triple = "x86_64-pc-linux-gnu"

%struct.AVIOInterruptCB = type { ptr, ptr }
%struct.URLContext = type { ptr, ptr, ptr, ptr, i32, i32, i32, i32, %struct.AVIOInterruptCB, i64, ptr, ptr, i32 }
%struct.AsyncContext = type { ptr, ptr, i32, i64, i32, i32, i64, i32, i32, i32, i64, i64, %struct.RingBuffer, %union.pthread_cond_t, %union.pthread_cond_t, %union.pthread_mutex_t, i64, i32, %struct.AVIOInterruptCB }
%struct.RingBuffer = type { ptr, i32, i32 }
%union.pthread_cond_t = type { %struct.__pthread_cond_s }
%struct.__pthread_cond_s = type { %union.__atomic_wide_counter, %union.__atomic_wide_counter, [2 x i32], [2 x i32], i32, i32, [2 x i32] }
%union.__atomic_wide_counter = type { i64 }
%union.pthread_mutex_t = type { %struct.__pthread_mutex_s }
%struct.__pthread_mutex_s = type { i32, i32, i32, i32, i32, i16, i16, %struct.__pthread_internal_list }
%struct.__pthread_internal_list = type { ptr, ptr }

; Function Attrs: nounwind uwtable
define internal i32 @ring_read(ptr noundef %0, ptr noundef %1, i32 noundef %2) #0 {
  %4 = alloca ptr, align 8
  %5 = alloca ptr, align 8
  %6 = alloca i32, align 4
  %7 = alloca i32, align 4
  store ptr %0, ptr %4, align 8, !tbaa !37
  store ptr %1, ptr %5, align 8, !tbaa !27
  store i32 %2, ptr %6, align 4, !tbaa !11
  call void @llvm.lifetime.start.p0(i64 4, ptr %7) #7
  store i32 0, ptr %7, align 4, !tbaa !11
  %8 = load ptr, ptr %5, align 8, !tbaa !27
  %9 = icmp ne ptr %8, null
  br i1 %9, label %10, label %22

10:                                               ; preds = %3
  %11 = load ptr, ptr %4, align 8, !tbaa !37
  %12 = getelementptr inbounds nuw %struct.RingBuffer, ptr %11, i32 0, i32 0
  %13 = load ptr, ptr %12, align 8, !tbaa !47
  %14 = load ptr, ptr %5, align 8, !tbaa !27
  %15 = load i32, ptr %6, align 4, !tbaa !11
  %16 = sext i32 %15 to i64
  %17 = load ptr, ptr %4, align 8, !tbaa !37
  %18 = getelementptr inbounds nuw %struct.RingBuffer, ptr %17, i32 0, i32 2
  %19 = load i32, ptr %18, align 4, !tbaa !52
  %20 = sext i32 %19 to i64
  %21 = call i32 @av_fifo_peek(ptr noundef %13, ptr noundef %14, i64 noundef %16, i64 noundef %20)
  store i32 %21, ptr %7, align 4, !tbaa !11
  br label %22

22:                                               ; preds = %10, %3
  %23 = load i32, ptr %6, align 4, !tbaa !11
  %24 = load ptr, ptr %4, align 8, !tbaa !37
  %25 = getelementptr inbounds nuw %struct.RingBuffer, ptr %24, i32 0, i32 2
  %26 = load i32, ptr %25, align 4, !tbaa !52
  %27 = add nsw i32 %26, %23
  store i32 %27, ptr %25, align 4, !tbaa !52
  %28 = load ptr, ptr %4, align 8, !tbaa !37
  %29 = getelementptr inbounds nuw %struct.RingBuffer, ptr %28, i32 0, i32 2
  %30 = load i32, ptr %29, align 4, !tbaa !52
  %31 = load ptr, ptr %4, align 8, !tbaa !37
  %32 = getelementptr inbounds nuw %struct.RingBuffer, ptr %31, i32 0, i32 1
  %33 = load i32, ptr %32, align 8, !tbaa !48
  %34 = icmp sgt i32 %30, %33
  br i1 %34, label %35, label %52

35:                                               ; preds = %22
  %36 = load ptr, ptr %4, align 8, !tbaa !37
  %37 = getelementptr inbounds nuw %struct.RingBuffer, ptr %36, i32 0, i32 0
  %38 = load ptr, ptr %37, align 8, !tbaa !47
  %39 = load ptr, ptr %4, align 8, !tbaa !37
  %40 = getelementptr inbounds nuw %struct.RingBuffer, ptr %39, i32 0, i32 2
  %41 = load i32, ptr %40, align 4, !tbaa !52
  %42 = load ptr, ptr %4, align 8, !tbaa !37
  %43 = getelementptr inbounds nuw %struct.RingBuffer, ptr %42, i32 0, i32 1
  %44 = load i32, ptr %43, align 8, !tbaa !48
  %45 = sub nsw i32 %41, %44
  %46 = sext i32 %45 to i64
  call void @av_fifo_drain2(ptr noundef %38, i64 noundef %46)
  %47 = load ptr, ptr %4, align 8, !tbaa !37
  %48 = getelementptr inbounds nuw %struct.RingBuffer, ptr %47, i32 0, i32 1
  %49 = load i32, ptr %48, align 8, !tbaa !48
  %50 = load ptr, ptr %4, align 8, !tbaa !37
  %51 = getelementptr inbounds nuw %struct.RingBuffer, ptr %50, i32 0, i32 2
  store i32 %49, ptr %51, align 4, !tbaa !52
  br label %52

52:                                               ; preds = %35, %22
  %53 = load i32, ptr %7, align 4, !tbaa !11
  call void @llvm.lifetime.end.p0(i64 4, ptr %7) #7
  ret i32 %53
}

; Function Attrs: nounwind uwtable
define internal i32 @ring_size(ptr noundef %0) #0 {
  %2 = alloca ptr, align 8
  store ptr %0, ptr %2, align 8, !tbaa !37
  %3 = load ptr, ptr %2, align 8, !tbaa !37
  %4 = getelementptr inbounds nuw %struct.RingBuffer, ptr %3, i32 0, i32 0
  %5 = load ptr, ptr %4, align 8, !tbaa !47
  %6 = call i64 @av_fifo_can_read(ptr noundef %5)
  %7 = load ptr, ptr %2, align 8, !tbaa !37
  %8 = getelementptr inbounds nuw %struct.RingBuffer, ptr %7, i32 0, i32 2
  %9 = load i32, ptr %8, align 4, !tbaa !52
  %10 = sext i32 %9 to i64
  %11 = sub i64 %6, %10
  %12 = trunc i64 %11 to i32
  ret i32 %12
}

; Function Attrs: nounwind uwtable
define internal i32 @async_check_interrupt(ptr noundef %0) #0 {
  %2 = alloca i32, align 4
  %3 = alloca ptr, align 8
  %4 = alloca ptr, align 8
  %5 = alloca ptr, align 8
  %6 = alloca i32, align 4
  store ptr %0, ptr %3, align 8, !tbaa !27
  call void @llvm.lifetime.start.p0(i64 8, ptr %4) #7
  %7 = load ptr, ptr %3, align 8, !tbaa !27
  store ptr %7, ptr %4, align 8, !tbaa !4
  call void @llvm.lifetime.start.p0(i64 8, ptr %5) #7
  %8 = load ptr, ptr %4, align 8, !tbaa !4
  %9 = getelementptr inbounds nuw %struct.URLContext, ptr %8, i32 0, i32 2
  %10 = load ptr, ptr %9, align 8, !tbaa !16
  store ptr %10, ptr %5, align 8, !tbaa !22
  %11 = load ptr, ptr %5, align 8, !tbaa !22
  %12 = getelementptr inbounds nuw %struct.AsyncContext, ptr %11, i32 0, i32 17
  %13 = load i32, ptr %12, align 8, !tbaa !45
  %14 = icmp ne i32 %13, 0
  br i1 %14, label %15, label %16

15:                                               ; preds = %1
  store i32 1, ptr %2, align 4
  store i32 1, ptr %6, align 4
  br label %28

16:                                               ; preds = %1
  %17 = load ptr, ptr %5, align 8, !tbaa !22
  %18 = getelementptr inbounds nuw %struct.AsyncContext, ptr %17, i32 0, i32 18
  %19 = call i32 @ff_check_interrupt(ptr noundef %18)
  %20 = icmp ne i32 %19, 0
  br i1 %20, label %21, label %24

21:                                               ; preds = %16
  %22 = load ptr, ptr %5, align 8, !tbaa !22
  %23 = getelementptr inbounds nuw %struct.AsyncContext, ptr %22, i32 0, i32 17
  store i32 1, ptr %23, align 8, !tbaa !45
  br label %24

24:                                               ; preds = %21, %16
  %25 = load ptr, ptr %5, align 8, !tbaa !22
  %26 = getelementptr inbounds nuw %struct.AsyncContext, ptr %25, i32 0, i32 17
  %27 = load i32, ptr %26, align 8, !tbaa !45
  store i32 %27, ptr %2, align 4
  store i32 1, ptr %6, align 4
  br label %28

28:                                               ; preds = %24, %15
  call void @llvm.lifetime.end.p0(i64 8, ptr %5) #7
  call void @llvm.lifetime.end.p0(i64 8, ptr %4) #7
  %29 = load i32, ptr %2, align 4
  ret i32 %29
}

; Function Attrs: nounwind uwtable
define internal i32 @async_read_internal(ptr noundef %0, ptr noundef %1, i32 noundef %2) #0 {
  %4 = alloca ptr, align 8
  %5 = alloca ptr, align 8
  %6 = alloca i32, align 4
  %7 = alloca ptr, align 8
  %8 = alloca ptr, align 8
  %9 = alloca i32, align 4
  %10 = alloca i32, align 4
  %11 = alloca i32, align 4
  %12 = alloca i32, align 4
  %13 = alloca i32, align 4
  %14 = alloca i32, align 4
  store ptr %0, ptr %4, align 8, !tbaa !4
  store ptr %1, ptr %5, align 8, !tbaa !27
  store i32 %2, ptr %6, align 4, !tbaa !11
  call void @llvm.lifetime.start.p0(i64 8, ptr %7) #7
  %15 = load ptr, ptr %4, align 8, !tbaa !4
  %16 = getelementptr inbounds nuw %struct.URLContext, ptr %15, i32 0, i32 2
  %17 = load ptr, ptr %16, align 8, !tbaa !16
  store ptr %17, ptr %7, align 8, !tbaa !22
  call void @llvm.lifetime.start.p0(i64 8, ptr %8) #7
  %18 = load ptr, ptr %7, align 8, !tbaa !22
  %19 = getelementptr inbounds nuw %struct.AsyncContext, ptr %18, i32 0, i32 12
  store ptr %19, ptr %8, align 8, !tbaa !37
  call void @llvm.lifetime.start.p0(i64 4, ptr %9) #7
  %20 = load ptr, ptr %5, align 8, !tbaa !27
  %21 = icmp ne ptr %20, null
  %22 = xor i1 %21, true
  %23 = zext i1 %22 to i32
  store i32 %23, ptr %9, align 4, !tbaa !11
  call void @llvm.lifetime.start.p0(i64 4, ptr %10) #7
  %24 = load i32, ptr %6, align 4, !tbaa !11
  store i32 %24, ptr %10, align 4, !tbaa !11
  call void @llvm.lifetime.start.p0(i64 4, ptr %11) #7
  store i32 0, ptr %11, align 4, !tbaa !11
  %25 = load ptr, ptr %7, align 8, !tbaa !22
  %26 = getelementptr inbounds nuw %struct.AsyncContext, ptr %25, i32 0, i32 15
  %27 = call i32 @pthread_mutex_lock(ptr noundef %26) #7
  br label %28

28:                                               ; preds = %114, %3
  %29 = load i32, ptr %10, align 4, !tbaa !11
  %30 = icmp sgt i32 %29, 0
  br i1 %30, label %31, label %115

31:                                               ; preds = %28
  call void @llvm.lifetime.start.p0(i64 4, ptr %12) #7
  call void @llvm.lifetime.start.p0(i64 4, ptr %13) #7
  %32 = load ptr, ptr %4, align 8, !tbaa !4
  %33 = call i32 @async_check_interrupt(ptr noundef %32)
  %34 = icmp ne i32 %33, 0
  br i1 %34, label %35, label %36

35:                                               ; preds = %31
  store i32 -1414092869, ptr %11, align 4, !tbaa !11
  store i32 3, ptr %14, align 4
  br label %112

36:                                               ; preds = %31
  %37 = load ptr, ptr %8, align 8, !tbaa !37
  %38 = call i32 @ring_size(ptr noundef %37)
  store i32 %38, ptr %12, align 4, !tbaa !11
  %39 = load i32, ptr %10, align 4, !tbaa !11
  %40 = load i32, ptr %12, align 4, !tbaa !11
  %41 = icmp sgt i32 %39, %40
  br i1 %41, label %42, label %44

42:                                               ; preds = %36
  %43 = load i32, ptr %12, align 4, !tbaa !11
  br label %46

44:                                               ; preds = %36
  %45 = load i32, ptr %10, align 4, !tbaa !11
  br label %46

46:                                               ; preds = %44, %42
  %47 = phi i32 [ %43, %42 ], [ %45, %44 ]
  store i32 %47, ptr %13, align 4, !tbaa !11
  %48 = load i32, ptr %13, align 4, !tbaa !11
  %49 = icmp sgt i32 %48, 0
  br i1 %49, label %50, label %82

50:                                               ; preds = %46
  %51 = load ptr, ptr %8, align 8, !tbaa !37
  %52 = load ptr, ptr %5, align 8, !tbaa !27
  %53 = load i32, ptr %13, align 4, !tbaa !11
  %54 = call i32 @ring_read(ptr noundef %51, ptr noundef %52, i32 noundef %53)
  %55 = load ptr, ptr %5, align 8, !tbaa !27
  %56 = icmp ne ptr %55, null
  br i1 %56, label %57, label %62

57:                                               ; preds = %50
  %58 = load ptr, ptr %5, align 8, !tbaa !27
  %59 = load i32, ptr %13, align 4, !tbaa !11
  %60 = sext i32 %59 to i64
  %61 = getelementptr inbounds i8, ptr %58, i64 %60
  store ptr %61, ptr %5, align 8, !tbaa !27
  br label %62

62:                                               ; preds = %57, %50
  %63 = load i32, ptr %13, align 4, !tbaa !11
  %64 = sext i32 %63 to i64
  %65 = load ptr, ptr %7, align 8, !tbaa !22
  %66 = getelementptr inbounds nuw %struct.AsyncContext, ptr %65, i32 0, i32 10
  %67 = load i64, ptr %66, align 8, !tbaa !39
  %68 = add nsw i64 %67, %64
  store i64 %68, ptr %66, align 8, !tbaa !39
  %69 = load i32, ptr %13, align 4, !tbaa !11
  %70 = load i32, ptr %10, align 4, !tbaa !11
  %71 = sub nsw i32 %70, %69
  store i32 %71, ptr %10, align 4, !tbaa !11
  %72 = load i32, ptr %6, align 4, !tbaa !11
  %73 = load i32, ptr %10, align 4, !tbaa !11
  %74 = sub nsw i32 %72, %73
  store i32 %74, ptr %11, align 4, !tbaa !11
  %75 = load i32, ptr %10, align 4, !tbaa !11
  %76 = icmp sle i32 %75, 0
  br i1 %76, label %80, label %77

77:                                               ; preds = %62
  %78 = load i32, ptr %9, align 4, !tbaa !11
  %79 = icmp ne i32 %78, 0
  br i1 %79, label %81, label %80

80:                                               ; preds = %77, %62
  store i32 3, ptr %14, align 4
  br label %112

81:                                               ; preds = %77
  br label %103

82:                                               ; preds = %46
  %83 = load ptr, ptr %7, align 8, !tbaa !22
  %84 = getelementptr inbounds nuw %struct.AsyncContext, ptr %83, i32 0, i32 9
  %85 = load i32, ptr %84, align 8, !tbaa !49
  %86 = icmp ne i32 %85, 0
  br i1 %86, label %87, label %102

87:                                               ; preds = %82
  %88 = load i32, ptr %11, align 4, !tbaa !11
  %89 = icmp sle i32 %88, 0
  br i1 %89, label %90, label %101

90:                                               ; preds = %87
  %91 = load ptr, ptr %7, align 8, !tbaa !22
  %92 = getelementptr inbounds nuw %struct.AsyncContext, ptr %91, i32 0, i32 8
  %93 = load i32, ptr %92, align 4, !tbaa !50
  %94 = icmp ne i32 %93, 0
  br i1 %94, label %95, label %99

95:                                               ; preds = %90
  %96 = load ptr, ptr %7, align 8, !tbaa !22
  %97 = getelementptr inbounds nuw %struct.AsyncContext, ptr %96, i32 0, i32 8
  %98 = load i32, ptr %97, align 4, !tbaa !50
  store i32 %98, ptr %11, align 4, !tbaa !11
  br label %100

99:                                               ; preds = %90
  store i32 -541478725, ptr %11, align 4, !tbaa !11
  br label %100

100:                                              ; preds = %99, %95
  br label %101

101:                                              ; preds = %100, %87
  store i32 3, ptr %14, align 4
  br label %112

102:                                              ; preds = %82
  br label %103

103:                                              ; preds = %102, %81
  %104 = load ptr, ptr %7, align 8, !tbaa !22
  %105 = getelementptr inbounds nuw %struct.AsyncContext, ptr %104, i32 0, i32 14
  %106 = call i32 @pthread_cond_signal(ptr noundef %105) #7
  %107 = load ptr, ptr %7, align 8, !tbaa !22
  %108 = getelementptr inbounds nuw %struct.AsyncContext, ptr %107, i32 0, i32 13
  %109 = load ptr, ptr %7, align 8, !tbaa !22
  %110 = getelementptr inbounds nuw %struct.AsyncContext, ptr %109, i32 0, i32 15
  %111 = call i32 @pthread_cond_wait(ptr noundef %108, ptr noundef %110)
  store i32 0, ptr %14, align 4
  br label %112

112:                                              ; preds = %103, %101, %80, %35
  call void @llvm.lifetime.end.p0(i64 4, ptr %13) #7
  call void @llvm.lifetime.end.p0(i64 4, ptr %12) #7
  %113 = load i32, ptr %14, align 4
  switch i32 %113, label %123 [
    i32 0, label %114
    i32 3, label %115
  ]

114:                                              ; preds = %112
  br label %28, !llvm.loop !55

115:                                              ; preds = %112, %28
  %116 = load ptr, ptr %7, align 8, !tbaa !22
  %117 = getelementptr inbounds nuw %struct.AsyncContext, ptr %116, i32 0, i32 14
  %118 = call i32 @pthread_cond_signal(ptr noundef %117) #7
  %119 = load ptr, ptr %7, align 8, !tbaa !22
  %120 = getelementptr inbounds nuw %struct.AsyncContext, ptr %119, i32 0, i32 15
  %121 = call i32 @pthread_mutex_unlock(ptr noundef %120) #7
  %122 = load i32, ptr %11, align 4, !tbaa !11
  store i32 1, ptr %14, align 4
  call void @llvm.lifetime.end.p0(i64 4, ptr %11) #7
  call void @llvm.lifetime.end.p0(i64 4, ptr %10) #7
  call void @llvm.lifetime.end.p0(i64 4, ptr %9) #7
  call void @llvm.lifetime.end.p0(i64 8, ptr %8) #7
  call void @llvm.lifetime.end.p0(i64 8, ptr %7) #7
  ret i32 %122

123:                                              ; preds = %112
  unreachable
}