; Function Attrs: nounwind uwtable
define internal fastcc i32 @async_read_internal(ptr noundef readonly captures(none) %0, ptr noundef %1, i32 noundef %2) unnamed_addr #0 {
  %4 = getelementptr inbounds nuw i8, ptr %0, i64 16
  %5 = load ptr, ptr %4, align 8, !tbaa !9
  %6 = getelementptr inbounds nuw i8, ptr %5, i64 80
  %.not = icmp eq ptr %1, null
  %7 = getelementptr inbounds nuw i8, ptr %5, i64 192
  %8 = tail call i32 @pthread_mutex_lock(ptr noundef nonnull %7) #7
  %9 = icmp sgt i32 %2, 0
  br i1 %9, label %.lr.ph, label %.thread

.lr.ph:                                           ; preds = %3
  %10 = getelementptr inbounds nuw i8, ptr %5, i64 92
  %11 = getelementptr inbounds nuw i8, ptr %5, i64 56
  %12 = getelementptr inbounds nuw i8, ptr %5, i64 88
  %13 = getelementptr inbounds nuw i8, ptr %5, i64 64
  %14 = getelementptr inbounds nuw i8, ptr %5, i64 144
  %15 = getelementptr inbounds nuw i8, ptr %5, i64 96
  br label %16

16:                                               ; preds = %.lr.ph, %62
  %.03867 = phi ptr [ %1, %.lr.ph ], [ %.3, %62 ]
  %.03966 = phi i32 [ %2, %.lr.ph ], [ %.241, %62 ]
  %.04265 = phi i32 [ 0, %.lr.ph ], [ %.345, %62 ]
  %17 = load ptr, ptr %4, align 8, !tbaa !9
  %18 = getelementptr inbounds nuw i8, ptr %17, i64 240
  %19 = load i32, ptr %18, align 8, !tbaa !35
  %.not.i = icmp eq i32 %19, 0
  br i1 %.not.i, label %20, label %.thread

20:                                               ; preds = %16
  %21 = getelementptr inbounds nuw i8, ptr %17, i64 248
  %22 = tail call i32 @ff_check_interrupt(ptr noundef nonnull %21) #7
  %.not6.i = icmp eq i32 %22, 0
  br i1 %.not6.i, label %async_check_interrupt.exit, label %23

23:                                               ; preds = %20
  store i32 1, ptr %18, align 8, !tbaa !35
  br label %.thread

async_check_interrupt.exit:                       ; preds = %20
  %.pre.i = load i32, ptr %18, align 8, !tbaa !35
  %.not49 = icmp eq i32 %.pre.i, 0
  br i1 %.not49, label %24, label %.thread

24:                                               ; preds = %async_check_interrupt.exit
  %25 = load ptr, ptr %6, align 8, !tbaa !18
  %26 = tail call i64 @av_fifo_can_read(ptr noundef %25) #7
  %27 = load i32, ptr %10, align 4, !tbaa !32
  %28 = trunc i64 %26 to i32
  %29 = sub i32 %28, %27
  %30 = tail call i32 @llvm.smin.i32(i32 %.03966, i32 %29)
  %31 = icmp sgt i32 %29, 0
  br i1 %31, label %32, label %55

32:                                               ; preds = %24
  %.not.i53 = icmp eq ptr %.03867, null
  br i1 %.not.i53, label %38, label %33

33:                                               ; preds = %32
  %34 = load ptr, ptr %6, align 8, !tbaa !18
  %35 = zext nneg i32 %30 to i64
  %36 = sext i32 %27 to i64
  %37 = tail call i32 @av_fifo_peek(ptr noundef %34, ptr noundef nonnull %.03867, i64 noundef %35, i64 noundef %36) #7
  %.pre = load i32, ptr %10, align 4, !tbaa !32
  br label %38

38:                                               ; preds = %33, %32
  %39 = phi i32 [ %.pre, %33 ], [ %27, %32 ]
  %40 = add nsw i32 %39, %30
  store i32 %40, ptr %10, align 4, !tbaa !32
  %41 = load i32, ptr %12, align 8, !tbaa !21
  %42 = icmp sgt i32 %40, %41
  br i1 %42, label %43, label %ring_read.exit

43:                                               ; preds = %38
  %44 = load ptr, ptr %6, align 8, !tbaa !18
  %45 = sub nsw i32 %40, %41
  %46 = sext i32 %45 to i64
  tail call void @av_fifo_drain2(ptr noundef %44, i64 noundef %46) #7
  %47 = load i32, ptr %12, align 8, !tbaa !21
  store i32 %47, ptr %10, align 4, !tbaa !32
  br label %ring_read.exit

ring_read.exit:                                   ; preds = %38, %43
  %48 = zext nneg i32 %30 to i64
  %49 = getelementptr inbounds nuw i8, ptr %.03867, i64 %48
  %.2 = select i1 %.not.i53, ptr null, ptr %49
  %50 = load i64, ptr %13, align 8, !tbaa !31
  %51 = add nsw i64 %50, %48
  store i64 %51, ptr %13, align 8, !tbaa !31
  %52 = sub nsw i32 %.03966, %30
  %53 = sub nsw i32 %2, %52
  %54 = icmp sgt i32 %52, 0
  %or.cond = and i1 %.not, %54
  br i1 %or.cond, label %62, label %.thread

55:                                               ; preds = %24
  %56 = load i32, ptr %11, align 8, !tbaa !40
  %.not50 = icmp eq i32 %56, 0
  br i1 %.not50, label %62, label %57

57:                                               ; preds = %55
  %58 = icmp slt i32 %.04265, 1
  br i1 %58, label %59, label %.thread

59:                                               ; preds = %57
  %60 = getelementptr inbounds nuw i8, ptr %5, i64 52
  %61 = load i32, ptr %60, align 4, !tbaa !41
  %.not51 = icmp eq i32 %61, 0
  %. = select i1 %.not51, i32 -541478725, i32 %61
  br label %.thread

62:                                               ; preds = %ring_read.exit, %55
  %.345 = phi i32 [ %53, %ring_read.exit ], [ %.04265, %55 ]
  %.241 = phi i32 [ %52, %ring_read.exit ], [ %.03966, %55 ]
  %.3 = phi ptr [ %.2, %ring_read.exit ], [ %.03867, %55 ]
  %63 = tail call i32 @pthread_cond_signal(ptr noundef nonnull %14) #7
  %64 = tail call i32 @pthread_cond_wait(ptr noundef nonnull %15, ptr noundef nonnull %7) #7
  %65 = icmp sgt i32 %.241, 0
  br i1 %65, label %16, label %.thread

.thread:                                          ; preds = %62, %async_check_interrupt.exit, %ring_read.exit, %16, %3, %23, %57, %59
  %.143 = phi i32 [ %., %59 ], [ %.04265, %57 ], [ -1414092869, %23 ], [ 0, %3 ], [ %.345, %62 ], [ -1414092869, %async_check_interrupt.exit ], [ %53, %ring_read.exit ], [ -1414092869, %16 ]
  %66 = getelementptr inbounds nuw i8, ptr %5, i64 144
  %67 = tail call i32 @pthread_cond_signal(ptr noundef nonnull %66) #7
  %68 = tail call i32 @pthread_mutex_unlock(ptr noundef nonnull %7) #7
  ret i32 %.143
}